target datalayout = "e-m:e-p270:32:32-p271:32:32-p272:64:64-i64:64-i128:128-f80:128-n8:16:32:64-S128"
target triple = "x86_64-pc-linux-gnu"

@arc4rand_lock = internal global ptr null, align 8
@.str = private unnamed_addr constant [21 x i8] c"Couldn't allocate %s\00", align 1
@.str.1 = private unnamed_addr constant [14 x i8] c"arc4rand_lock\00", align 1

; Function Attrs: nounwind uwtable
define hidden i32 @evutil_secure_rng_global_setup_locks_(i32 noundef %0) #0 {
  %2 = alloca i32, align 4
  %3 = alloca i32, align 4
  store i32 %0, ptr %3, align 4
  br label %4

4:                                                ; preds = %1
  %5 = load ptr, ptr @arc4rand_lock, align 8
  %6 = load i32, ptr %3, align 4
  %7 = call ptr @evthread_setup_global_lock_(ptr noundef %5, i32 noundef 0, i32 noundef %6)
  store ptr %7, ptr @arc4rand_lock, align 8
  %8 = load ptr, ptr @arc4rand_lock, align 8
  %9 = icmp ne ptr %8, null
  br i1 %9, label %11, label %10

10:                                               ; preds = %4
  call void (ptr, ...) @event_warn(ptr noundef @.str, ptr noundef @.str.1)
  store i32 -1, ptr %2, align 4
  br label %13

11:                                               ; preds = %4
  br label %12

12:                                               ; preds = %11
  store i32 0, ptr %2, align 4
  br label %13

13:                                               ; preds = %12, %10
  %14 = load i32, ptr %2, align 4
  ret i32 %14
}