; Function Attrs: nounwind uwtable
define hidden range(i32 -1, 1) i32 @evutil_secure_rng_global_setup_locks_(i32 noundef %0) local_unnamed_addr #0 {
  %2 = load ptr, ptr @arc4rand_lock, align 8
  %3 = tail call ptr @evthread_setup_global_lock_(ptr noundef %2, i32 noundef 0, i32 noundef %0) #7
  store ptr %3, ptr @arc4rand_lock, align 8
  %.not = icmp eq ptr %3, null
  br i1 %.not, label %4, label %5

4:                                                ; preds = %1
  tail call void (ptr, ...) @event_warn(ptr noundef nonnull @.str, ptr noundef nonnull @.str.1) #7
  br label %5

5:                                                ; preds = %1, %4
  %.0 = phi i32 [ -1, %4 ], [ 0, %1 ]
  ret i32 %.0
}